target datalayout = "e-m:e-p270:32:32-p271:32:32-p272:64:64-i64:64-i128:128-f80:128-n8:16:32:64-S128"
target triple = "x86_64-pc-linux-gnu"

%struct.SDL_GUID = type { [16 x i8] }

@.str.10 = private unnamed_addr constant [2 x i8] c" \00", align 1

; Function Attrs: nounwind uwtable
define hidden { i64, i64 } @SDL_CreateJoystickGUID(i16 noundef zeroext %0, i16 noundef zeroext %1, i16 noundef zeroext %2, i16 noundef zeroext %3, ptr noundef %4, ptr noundef %5, i8 noundef zeroext %6, i8 noundef zeroext %7) #0 {
  %9 = alloca %struct.SDL_GUID, align 1
  %10 = alloca i16, align 2
  %11 = alloca i16, align 2
  %12 = alloca i16, align 2
  %13 = alloca i16, align 2
  %14 = alloca ptr, align 8
  %15 = alloca ptr, align 8
  %16 = alloca i8, align 1
  %17 = alloca i8, align 1
  %18 = alloca ptr, align 8
  %19 = alloca i16, align 2
  %20 = alloca i64, align 8
  store i16 %0, ptr %10, align 2
  store i16 %1, ptr %11, align 2
  store i16 %2, ptr %12, align 2
  store i16 %3, ptr %13, align 2
  store ptr %4, ptr %14, align 8
  store ptr %5, ptr %15, align 8
  store i8 %6, ptr %16, align 1
  store i8 %7, ptr %17, align 1
  call void @llvm.lifetime.start.p0(i64 8, ptr %18) #7
  %21 = getelementptr inbounds nuw %struct.SDL_GUID, ptr %9, i32 0, i32 0
  %22 = getelementptr inbounds [16 x i8], ptr %21, i64 0, i64 0
  store ptr %22, ptr %18, align 8
  call void @llvm.lifetime.start.p0(i64 2, ptr %19) #7
  store i16 0, ptr %19, align 2
  call void @llvm.memset.p0.i64(ptr align 1 %9, i8 0, i64 16, i1 false)
  %23 = load ptr, ptr %14, align 8
  %24 = icmp ne ptr %23, null
  br i1 %24, label %25, label %51

25:                                               ; preds = %8
  %26 = load ptr, ptr %14, align 8
  %27 = load i8, ptr %26, align 1
  %28 = sext i8 %27 to i32
  %29 = icmp ne i32 %28, 0
  br i1 %29, label %30, label %51

30:                                               ; preds = %25
  %31 = load ptr, ptr %15, align 8
  %32 = icmp ne ptr %31, null
  br i1 %32, label %33, label %51

33:                                               ; preds = %30
  %34 = load ptr, ptr %15, align 8
  %35 = load i8, ptr %34, align 1
  %36 = sext i8 %35 to i32
  %37 = icmp ne i32 %36, 0
  br i1 %37, label %38, label %51

38:                                               ; preds = %33
  %39 = load i16, ptr %19, align 2
  %40 = load ptr, ptr %14, align 8
  %41 = load ptr, ptr %14, align 8
  %42 = call i64 @SDL_strlen_REAL(ptr noundef %41)
  %43 = call zeroext i16 @SDL_crc16_REAL(i16 noundef zeroext %39, ptr noundef %40, i64 noundef %42)
  store i16 %43, ptr %19, align 2
  %44 = load i16, ptr %19, align 2
  %45 = call zeroext i16 @SDL_crc16_REAL(i16 noundef zeroext %44, ptr noundef @.str.10, i64 noundef 1)
  store i16 %45, ptr %19, align 2
  %46 = load i16, ptr %19, align 2
  %47 = load ptr, ptr %15, align 8
  %48 = load ptr, ptr %15, align 8
  %49 = call i64 @SDL_strlen_REAL(ptr noundef %48)
  %50 = call zeroext i16 @SDL_crc16_REAL(i16 noundef zeroext %46, ptr noundef %47, i64 noundef %49)
  store i16 %50, ptr %19, align 2
  br label %61

51:                                               ; preds = %33, %30, %25, %8
  %52 = load ptr, ptr %15, align 8
  %53 = icmp ne ptr %52, null
  br i1 %53, label %54, label %60

54:                                               ; preds = %51
  %55 = load i16, ptr %19, align 2
  %56 = load ptr, ptr %15, align 8
  %57 = load ptr, ptr %15, align 8
  %58 = call i64 @SDL_strlen_REAL(ptr noundef %57)
  %59 = call zeroext i16 @SDL_crc16_REAL(i16 noundef zeroext %55, ptr noundef %56, i64 noundef %58)
  store i16 %59, ptr %19, align 2
  br label %60

60:                                               ; preds = %54, %51
  br label %61

61:                                               ; preds = %60, %38
  %62 = load i16, ptr %10, align 2
  %63 = load ptr, ptr %18, align 8
  %64 = getelementptr inbounds nuw i16, ptr %63, i32 1
  store ptr %64, ptr %18, align 8
  store i16 %62, ptr %63, align 2
  %65 = load i16, ptr %19, align 2
  %66 = load ptr, ptr %18, align 8
  %67 = getelementptr inbounds nuw i16, ptr %66, i32 1
  store ptr %67, ptr %18, align 8
  store i16 %65, ptr %66, align 2
  %68 = load i16, ptr %11, align 2
  %69 = icmp ne i16 %68, 0
  br i1 %69, label %70, label %90

70:                                               ; preds = %61
  %71 = load i16, ptr %11, align 2
  %72 = load ptr, ptr %18, align 8
  %73 = getelementptr inbounds nuw i16, ptr %72, i32 1
  store ptr %73, ptr %18, align 8
  store i16 %71, ptr %72, align 2
  %74 = load ptr, ptr %18, align 8
  %75 = getelementptr inbounds nuw i16, ptr %74, i32 1
  store ptr %75, ptr %18, align 8
  store i16 0, ptr %74, align 2
  %76 = load i16, ptr %12, align 2
  %77 = load ptr, ptr %18, align 8
  %78 = getelementptr inbounds nuw i16, ptr %77, i32 1
  store ptr %78, ptr %18, align 8
  store i16 %76, ptr %77, align 2
  %79 = load ptr, ptr %18, align 8
  %80 = getelementptr inbounds nuw i16, ptr %79, i32 1
  store ptr %80, ptr %18, align 8
  store i16 0, ptr %79, align 2
  %81 = load i16, ptr %13, align 2
  %82 = load ptr, ptr %18, align 8
  %83 = getelementptr inbounds nuw i16, ptr %82, i32 1
  store ptr %83, ptr %18, align 8
  store i16 %81, ptr %82, align 2
  %84 = load i8, ptr %16, align 1
  %85 = getelementptr inbounds nuw %struct.SDL_GUID, ptr %9, i32 0, i32 0
  %86 = getelementptr inbounds [16 x i8], ptr %85, i64 0, i64 14
  store i8 %84, ptr %86, align 1
  %87 = load i8, ptr %17, align 1
  %88 = getelementptr inbounds nuw %struct.SDL_GUID, ptr %9, i32 0, i32 0
  %89 = getelementptr inbounds [16 x i8], ptr %88, i64 0, i64 15
  store i8 %87, ptr %89, align 1
  br label %111

90:                                               ; preds = %61
  call void @llvm.lifetime.start.p0(i64 8, ptr %20) #7
  store i64 12, ptr %20, align 8
  %91 = load i8, ptr %16, align 1
  %92 = icmp ne i8 %91, 0
  br i1 %92, label %93, label %102

93:                                               ; preds = %90
  %94 = load i64, ptr %20, align 8
  %95 = sub i64 %94, 2
  store i64 %95, ptr %20, align 8
  %96 = load i8, ptr %16, align 1
  %97 = getelementptr inbounds nuw %struct.SDL_GUID, ptr %9, i32 0, i32 0
  %98 = getelementptr inbounds [16 x i8], ptr %97, i64 0, i64 14
  store i8 %96, ptr %98, align 1
  %99 = load i8, ptr %17, align 1
  %100 = getelementptr inbounds nuw %struct.SDL_GUID, ptr %9, i32 0, i32 0
  %101 = getelementptr inbounds [16 x i8], ptr %100, i64 0, i64 15
  store i8 %99, ptr %101, align 1
  br label %102

102:                                              ; preds = %93, %90
  %103 = load ptr, ptr %15, align 8
  %104 = icmp ne ptr %103, null
  br i1 %104, label %105, label %110

105:                                              ; preds = %102
  %106 = load ptr, ptr %18, align 8
  %107 = load ptr, ptr %15, align 8
  %108 = load i64, ptr %20, align 8
  %109 = call i64 @SDL_strlcpy_REAL(ptr noundef %106, ptr noundef %107, i64 noundef %108)
  br label %110

110:                                              ; preds = %105, %102
  call void @llvm.lifetime.end.p0(i64 8, ptr %20) #7
  br label %111

111:                                              ; preds = %110, %70
  call void @llvm.lifetime.end.p0(i64 2, ptr %19) #7
  call void @llvm.lifetime.end.p0(i64 8, ptr %18) #7
  %112 = getelementptr inbounds nuw %struct.SDL_GUID, ptr %9, i32 0, i32 0
  %113 = load { i64, i64 }, ptr %112, align 1
  ret { i64, i64 } %113
}

; Function Attrs: nounwind uwtable
define hidden { i64, i64 } @SDL_CreateJoystickGUIDForName(ptr noundef %0) #0 {
  %2 = alloca %struct.SDL_GUID, align 1
  %3 = alloca ptr, align 8
  store ptr %0, ptr %3, align 8
  %4 = load ptr, ptr %3, align 8
  %5 = call { i64, i64 } @SDL_CreateJoystickGUID(i16 noundef zeroext 0, i16 noundef zeroext 0, i16 noundef zeroext 0, i16 noundef zeroext 0, ptr noundef null, ptr noundef %4, i8 noundef zeroext 0, i8 noundef zeroext 0)
  %6 = getelementptr inbounds nuw %struct.SDL_GUID, ptr %2, i32 0, i32 0
  %7 = getelementptr inbounds nuw { i64, i64 }, ptr %6, i32 0, i32 0
  %8 = extractvalue { i64, i64 } %5, 0
  store i64 %8, ptr %7, align 1
  %9 = getelementptr inbounds nuw { i64, i64 }, ptr %6, i32 0, i32 1
  %10 = extractvalue { i64, i64 } %5, 1
  store i64 %10, ptr %9, align 1
  %11 = getelementptr inbounds nuw %struct.SDL_GUID, ptr %2, i32 0, i32 0
  %12 = load { i64, i64 }, ptr %11, align 1
  ret { i64, i64 } %12
}