; Function Attrs: nounwind uwtable
define hidden { i64, i64 } @SDL_CreateJoystickGUIDForName(ptr noundef %0) local_unnamed_addr #1 {
  %2 = alloca %struct.SDL_GUID, align 8
  call void @llvm.lifetime.start.p0(i64 16, ptr nonnull %2)
  %3 = getelementptr inbounds nuw i8, ptr %2, i64 4
  call void @llvm.memset.p0.i64(ptr noundef nonnull align 4 dereferenceable(12) %3, i8 0, i64 12, i1 false)
  %.not44.i = icmp eq ptr %0, null
  br i1 %.not44.i, label %.thread, label %5

.thread:                                          ; preds = %1
  %4 = getelementptr inbounds nuw i8, ptr %2, i64 2
  store i16 0, ptr %2, align 8
  store i16 0, ptr %4, align 2
  br label %SDL_CreateJoystickGUID.exit

5:                                                ; preds = %1
  %6 = tail call i64 @SDL_strlen_REAL(ptr noundef nonnull %0) #13
  %7 = tail call zeroext i16 @SDL_crc16_REAL(i16 noundef zeroext 0, ptr noundef nonnull %0, i64 noundef %6) #13
  %8 = getelementptr inbounds nuw i8, ptr %2, i64 2
  store i16 0, ptr %2, align 8
  store i16 %7, ptr %8, align 2
  %9 = call i64 @SDL_strlcpy_REAL(ptr noundef nonnull %3, ptr noundef nonnull %0, i64 noundef 12) #13
  %.fca.1.gep.i.phi.trans.insert = getelementptr inbounds nuw i8, ptr %2, i64 8
  %.fca.1.load.i.pre = load i64, ptr %.fca.1.gep.i.phi.trans.insert, align 8
  br label %SDL_CreateJoystickGUID.exit

SDL_CreateJoystickGUID.exit:                      ; preds = %.thread, %5
  %.fca.1.load.i = phi i64 [ 0, %.thread ], [ %.fca.1.load.i.pre, %5 ]
  %.fca.0.load.i = load i64, ptr %2, align 8
  %.fca.0.insert.i = insertvalue { i64, i64 } poison, i64 %.fca.0.load.i, 0
  %.fca.1.insert.i = insertvalue { i64, i64 } %.fca.0.insert.i, i64 %.fca.1.load.i, 1
  call void @llvm.lifetime.end.p0(i64 16, ptr nonnull %2)
  ret { i64, i64 } %.fca.1.insert.i
}